target datalayout = "e-m:e-p270:32:32-p271:32:32-p272:64:64-i64:64-i128:128-f80:128-n8:16:32:64-S128"
target triple = "x86_64-pc-linux-gnu"

%struct.mbedtls_x509_time = type { i32, i32, i32, i32, i32, i32 }

; Function Attrs: nounwind uwtable
define hidden i32 @mbedtls_x509_time_cmp(ptr noundef %0, ptr noundef %1) #0 {
  %3 = alloca i32, align 4
  %4 = alloca ptr, align 8
  %5 = alloca ptr, align 8
  %6 = alloca i32, align 4
  %7 = alloca i32, align 4
  store ptr %0, ptr %4, align 8, !tbaa !30
  store ptr %1, ptr %5, align 8, !tbaa !30
  call void @llvm.lifetime.start.p0(i64 4, ptr %6) #9
  %8 = load ptr, ptr %4, align 8, !tbaa !30
  %9 = getelementptr inbounds nuw %struct.mbedtls_x509_time, ptr %8, i32 0, i32 0
  %10 = load i32, ptr %9, align 4, !tbaa !32
  %11 = shl i32 %10, 9
  %12 = load ptr, ptr %4, align 8, !tbaa !30
  %13 = getelementptr inbounds nuw %struct.mbedtls_x509_time, ptr %12, i32 0, i32 1
  %14 = load i32, ptr %13, align 4, !tbaa !34
  %15 = shl i32 %14, 5
  %16 = or i32 %11, %15
  %17 = load ptr, ptr %4, align 8, !tbaa !30
  %18 = getelementptr inbounds nuw %struct.mbedtls_x509_time, ptr %17, i32 0, i32 2
  %19 = load i32, ptr %18, align 4, !tbaa !35
  %20 = or i32 %16, %19
  %21 = load ptr, ptr %5, align 8, !tbaa !30
  %22 = getelementptr inbounds nuw %struct.mbedtls_x509_time, ptr %21, i32 0, i32 0
  %23 = load i32, ptr %22, align 4, !tbaa !32
  %24 = shl i32 %23, 9
  %25 = load ptr, ptr %5, align 8, !tbaa !30
  %26 = getelementptr inbounds nuw %struct.mbedtls_x509_time, ptr %25, i32 0, i32 1
  %27 = load i32, ptr %26, align 4, !tbaa !34
  %28 = shl i32 %27, 5
  %29 = or i32 %24, %28
  %30 = load ptr, ptr %5, align 8, !tbaa !30
  %31 = getelementptr inbounds nuw %struct.mbedtls_x509_time, ptr %30, i32 0, i32 2
  %32 = load i32, ptr %31, align 4, !tbaa !35
  %33 = or i32 %29, %32
  %34 = sub nsw i32 %20, %33
  store i32 %34, ptr %6, align 4, !tbaa !13
  %35 = load i32, ptr %6, align 4, !tbaa !13
  %36 = icmp ne i32 %35, 0
  br i1 %36, label %37, label %39

37:                                               ; preds = %2
  %38 = load i32, ptr %6, align 4, !tbaa !13
  store i32 %38, ptr %3, align 4
  store i32 1, ptr %7, align 4
  br label %68

39:                                               ; preds = %2
  %40 = load ptr, ptr %4, align 8, !tbaa !30
  %41 = getelementptr inbounds nuw %struct.mbedtls_x509_time, ptr %40, i32 0, i32 3
  %42 = load i32, ptr %41, align 4, !tbaa !36
  %43 = shl i32 %42, 12
  %44 = load ptr, ptr %4, align 8, !tbaa !30
  %45 = getelementptr inbounds nuw %struct.mbedtls_x509_time, ptr %44, i32 0, i32 4
  %46 = load i32, ptr %45, align 4, !tbaa !37
  %47 = shl i32 %46, 6
  %48 = or i32 %43, %47
  %49 = load ptr, ptr %4, align 8, !tbaa !30
  %50 = getelementptr inbounds nuw %struct.mbedtls_x509_time, ptr %49, i32 0, i32 5
  %51 = load i32, ptr %50, align 4, !tbaa !38
  %52 = or i32 %48, %51
  %53 = load ptr, ptr %5, align 8, !tbaa !30
  %54 = getelementptr inbounds nuw %struct.mbedtls_x509_time, ptr %53, i32 0, i32 3
  %55 = load i32, ptr %54, align 4, !tbaa !36
  %56 = shl i32 %55, 12
  %57 = load ptr, ptr %5, align 8, !tbaa !30
  %58 = getelementptr inbounds nuw %struct.mbedtls_x509_time, ptr %57, i32 0, i32 4
  %59 = load i32, ptr %58, align 4, !tbaa !37
  %60 = shl i32 %59, 6
  %61 = or i32 %56, %60
  %62 = load ptr, ptr %5, align 8, !tbaa !30
  %63 = getelementptr inbounds nuw %struct.mbedtls_x509_time, ptr %62, i32 0, i32 5
  %64 = load i32, ptr %63, align 4, !tbaa !38
  %65 = or i32 %61, %64
  %66 = sub nsw i32 %52, %65
  store i32 %66, ptr %6, align 4, !tbaa !13
  %67 = load i32, ptr %6, align 4, !tbaa !13
  store i32 %67, ptr %3, align 4
  store i32 1, ptr %7, align 4
  br label %68

68:                                               ; preds = %39, %37
  call void @llvm.lifetime.end.p0(i64 4, ptr %6) #9
  %69 = load i32, ptr %3, align 4
  ret i32 %69
}