; Function Attrs: mustprogress nofree norecurse nosync nounwind willreturn memory(argmem: read) uwtable
define hidden i32 @mbedtls_x509_time_cmp(ptr noundef readonly captures(none) %0, ptr noundef readonly captures(none) %1) local_unnamed_addr #8 {
  %3 = load i32, ptr %0, align 4, !tbaa !21
  %4 = shl i32 %3, 9
  %5 = getelementptr inbounds nuw i8, ptr %0, i64 4
  %6 = load i32, ptr %5, align 4, !tbaa !23
  %7 = shl i32 %6, 5
  %8 = or i32 %7, %4
  %9 = getelementptr inbounds nuw i8, ptr %0, i64 8
  %10 = load i32, ptr %9, align 4, !tbaa !24
  %11 = or i32 %8, %10
  %12 = load i32, ptr %1, align 4, !tbaa !21
  %13 = shl i32 %12, 9
  %14 = getelementptr inbounds nuw i8, ptr %1, i64 4
  %15 = load i32, ptr %14, align 4, !tbaa !23
  %16 = shl i32 %15, 5
  %17 = or i32 %16, %13
  %18 = getelementptr inbounds nuw i8, ptr %1, i64 8
  %19 = load i32, ptr %18, align 4, !tbaa !24
  %20 = or i32 %17, %19
  %21 = sub nsw i32 %11, %20
  %.not = icmp eq i32 %21, 0
  br i1 %.not, label %22, label %44

22:                                               ; preds = %2
  %23 = getelementptr inbounds nuw i8, ptr %0, i64 12
  %24 = load i32, ptr %23, align 4, !tbaa !25
  %25 = shl i32 %24, 12
  %26 = getelementptr inbounds nuw i8, ptr %0, i64 16
  %27 = load i32, ptr %26, align 4, !tbaa !26
  %28 = shl i32 %27, 6
  %29 = or i32 %28, %25
  %30 = getelementptr inbounds nuw i8, ptr %0, i64 20
  %31 = load i32, ptr %30, align 4, !tbaa !27
  %32 = or i32 %29, %31
  %33 = getelementptr inbounds nuw i8, ptr %1, i64 12
  %34 = load i32, ptr %33, align 4, !tbaa !25
  %35 = shl i32 %34, 12
  %36 = getelementptr inbounds nuw i8, ptr %1, i64 16
  %37 = load i32, ptr %36, align 4, !tbaa !26
  %38 = shl i32 %37, 6
  %39 = or i32 %38, %35
  %40 = getelementptr inbounds nuw i8, ptr %1, i64 20
  %41 = load i32, ptr %40, align 4, !tbaa !27
  %42 = or i32 %39, %41
  %43 = sub nsw i32 %32, %42
  br label %44

44:                                               ; preds = %2, %22
  %.0 = phi i32 [ %43, %22 ], [ %21, %2 ]
  ret i32 %.0
}